; ModuleID = 'bench/mitsuba3/original/errorhandler.cpp.ll'
source_filename = "bench/mitsuba3/original/errorhandler.cpp.ll"
target datalayout = "e-m:e-p270:32:32-p271:32:32-p272:64:64-i64:64-i128:128-f80:128-n8:16:32:64-S128"
target triple = "x86_64-pc-linux-gnu"

@_ZTVN6asmjit9_abi_1_1012ErrorHandlerE = unnamed_addr constant { [5 x ptr] } { [5 x ptr] [ptr null, ptr @_ZTIN6asmjit9_abi_1_1012ErrorHandlerE, ptr @_ZN6asmjit9_abi_1_1012ErrorHandlerD1Ev, ptr @_ZN6asmjit9_abi_1_1012ErrorHandlerD0Ev, ptr @__cxa_pure_virtual] }, align 8
@_ZTVN10__cxxabiv117__class_type_infoE = external global [0 x ptr]
@_ZTSN6asmjit9_abi_1_1012ErrorHandlerE = constant [34 x i8] c"N6asmjit9_abi_1_1012ErrorHandlerE\00", align 1
@_ZTIN6asmjit9_abi_1_1012ErrorHandlerE = constant { ptr, ptr } { ptr getelementptr inbounds (ptr, ptr @_ZTVN10__cxxabiv117__class_type_infoE, i64 2), ptr @_ZTSN6asmjit9_abi_1_1012ErrorHandlerE }, align 8

@_ZN6asmjit9_abi_1_1012ErrorHandlerD1Ev = unnamed_addr alias void (ptr), ptr @_ZN6asmjit9_abi_1_1012ErrorHandlerD2Ev

; Function Attrs: mustprogress nofree norecurse nosync nounwind willreturn memory(argmem: write) uwtable
define dso_local void @_ZN6asmjit9_abi_1_1012ErrorHandlerC2Ev(ptr nocapture noundef nonnull writeonly align 8 dereferenceable(8) %0) unnamed_addr #0 align 2 {
  store ptr getelementptr inbounds inrange(-16, 24) ({ [5 x ptr] }, ptr @_ZTVN6asmjit9_abi_1_1012ErrorHandlerE, i64 0, i32 0, i64 2), ptr %0, align 8, !tbaa !3
  ret void
}

; Function Attrs: mustprogress nofree norecurse nosync nounwind willreturn memory(none) uwtable
define dso_local void @_ZN6asmjit9_abi_1_1012ErrorHandlerD2Ev(ptr nocapture nonnull readnone align 8 %0) unnamed_addr #1 align 2 {
  ret void
}

; Function Attrs: mustprogress noreturn nounwind memory(inaccessiblemem: write) uwtable
define dso_local void @_ZN6asmjit9_abi_1_1012ErrorHandlerD0Ev(ptr nocapture nonnull readnone align 8 %0) unnamed_addr #2 align 2 {
  tail call void @llvm.trap() #4
  unreachable
}

; Function Attrs: cold noreturn nounwind memory(inaccessiblemem: write)
declare void @llvm.trap() #3

declare void @__cxa_pure_virtual() unnamed_addr


!llvm.module.flags = !{!0, !1, !2}

!0 = !{i32 1, !"wchar_size", i32 4}
!1 = !{i32 8, !"PIC Level", i32 2}
!2 = !{i32 7, !"uwtable", i32 2}
!3 = !{!4, !4, i64 0}
!4 = !{!"vtable pointer", !5, i64 0}
!5 = !{!"Simple C++ TBAA"}
